target datalayout = "e-m:e-p270:32:32-p271:32:32-p272:64:64-i64:64-i128:128-f80:128-n8:16:32:64-S128"
target triple = "x86_64-pc-linux-gnu"

%struct.H5VL_blob_specific_args_t = type { i32, %union.anon.13 }
%union.anon.13 = type { %struct.anon.14 }
%struct.anon.14 = type { ptr }

@H5_libterm_g = external global i8, align 1
@.str = private unnamed_addr constant [101 x i8] c"generated/home/dtcxzyw/WorkSpace/Projects/compilers/llvm-opt-benchmark/bench/hdf5/hdf5/src/H5Tvlen.c\00", align 1
@H5T_init_g = external global i8, align 1
@H5E_DATATYPE_g = external global i64, align 8
@H5E_CANTGET_g = external global i64, align 8
@__func__.H5T__vlen_disk_isnull = private unnamed_addr constant [22 x i8] c"H5T__vlen_disk_isnull\00", align 1
@.str.24 = private unnamed_addr constant [38 x i8] c"unable to check if a blob ID is 'nil'\00", align 1

; Function Attrs: nounwind uwtable
define internal i32 @H5T__vlen_disk_isnull(ptr noundef %0, ptr noundef %1, ptr noundef %2) #0 {
  %4 = alloca ptr, align 8
  %5 = alloca ptr, align 8
  %6 = alloca ptr, align 8
  %7 = alloca %struct.H5VL_blob_specific_args_t, align 8
  %8 = alloca ptr, align 8
  %9 = alloca i32, align 4
  %10 = alloca i8, align 1
  store ptr %0, ptr %4, align 8, !tbaa !30
  store ptr %1, ptr %5, align 8, !tbaa !38
  store ptr %2, ptr %6, align 8, !tbaa !56
  call void @llvm.lifetime.start.p0(i64 16, ptr %7) #9
  call void @llvm.lifetime.start.p0(i64 8, ptr %8) #9
  %11 = load ptr, ptr %5, align 8, !tbaa !38
  store ptr %11, ptr %8, align 8, !tbaa !53
  call void @llvm.lifetime.start.p0(i64 4, ptr %9) #9
  store i32 0, ptr %9, align 4, !tbaa !31
  call void @llvm.lifetime.start.p0(i64 1, ptr %10) #9
  store i8 0, ptr %10, align 1, !tbaa !10
  %12 = load i8, ptr @H5T_init_g, align 1, !tbaa !10, !range !12, !noundef !13
  %13 = trunc i8 %12 to i1
  br i1 %13, label %18, label %14

14:                                               ; preds = %3
  %15 = load i8, ptr @H5_libterm_g, align 1, !tbaa !10, !range !12, !noundef !13
  %16 = trunc i8 %15 to i1
  %17 = xor i1 %16, true
  br label %18

18:                                               ; preds = %14, %3
  %19 = phi i1 [ true, %3 ], [ %17, %14 ]
  %20 = xor i1 %19, true
  %21 = xor i1 %20, true
  %22 = zext i1 %21 to i32
  %23 = sext i32 %22 to i64
  %24 = call i64 @llvm.expect.i64(i64 %23, i64 1)
  %25 = icmp ne i64 %24, 0
  br i1 %25, label %26, label %58

26:                                               ; preds = %18
  %27 = load ptr, ptr %8, align 8, !tbaa !53
  %28 = getelementptr inbounds i8, ptr %27, i64 4
  store ptr %28, ptr %8, align 8, !tbaa !53
  %29 = getelementptr inbounds nuw %struct.H5VL_blob_specific_args_t, ptr %7, i32 0, i32 0
  store i32 1, ptr %29, align 8, !tbaa !60
  %30 = load ptr, ptr %6, align 8, !tbaa !56
  %31 = getelementptr inbounds nuw %struct.H5VL_blob_specific_args_t, ptr %7, i32 0, i32 1
  %32 = getelementptr inbounds nuw %struct.anon.14, ptr %31, i32 0, i32 0
  store ptr %30, ptr %32, align 8, !tbaa !29
  %33 = load ptr, ptr %4, align 8, !tbaa !30
  %34 = load ptr, ptr %8, align 8, !tbaa !53
  %35 = call i32 @H5VL_blob_specific(ptr noundef %33, ptr noundef %34, ptr noundef %7)
  %36 = icmp slt i32 %35, 0
  br i1 %36, label %37, label %56

37:                                               ; preds = %26
  br label %38

38:                                               ; preds = %37
  br label %39

39:                                               ; preds = %38
  br label %40

40:                                               ; preds = %39
  %41 = load i64, ptr @H5E_DATATYPE_g, align 8, !tbaa !3
  %42 = load i64, ptr @H5E_CANTGET_g, align 8, !tbaa !3
  %43 = call i32 (ptr, ptr, i32, i64, i64, ptr, ...) @H5E_printf_stack(ptr noundef @.str, ptr noundef @__func__.H5T__vlen_disk_isnull, i32 noundef 765, i64 noundef %41, i64 noundef %42, ptr noundef @.str.24)
  br label %44

44:                                               ; preds = %40
  br label %45

45:                                               ; preds = %44
  store i8 1, ptr %10, align 1, !tbaa !10
  %46 = load i8, ptr %10, align 1, !tbaa !10, !range !12, !noundef !13
  %47 = trunc i8 %46 to i1
  %48 = zext i1 %47 to i8
  store i8 %48, ptr %10, align 1, !tbaa !10
  br label %49

49:                                               ; preds = %45
  br label %50

50:                                               ; preds = %49
  br label %51

51:                                               ; preds = %50
  store i32 -1, ptr %9, align 4, !tbaa !31
  br label %57

52:                                               ; No predecessors!
  br label %53

53:                                               ; preds = %52
  br label %54

54:                                               ; preds = %53
  br label %55

55:                                               ; preds = %54
  br label %56

56:                                               ; preds = %55, %26
  br label %57

57:                                               ; preds = %56, %51
  br label %58

58:                                               ; preds = %57, %18
  %59 = load i32, ptr %9, align 4, !tbaa !31
  call void @llvm.lifetime.end.p0(i64 1, ptr %10) #9
  call void @llvm.lifetime.end.p0(i64 4, ptr %9) #9
  call void @llvm.lifetime.end.p0(i64 8, ptr %8) #9
  call void @llvm.lifetime.end.p0(i64 16, ptr %7) #9
  ret i32 %59
}