; Function Attrs: nounwind uwtable
define internal range(i32 -1, 1) i32 @H5T__vlen_disk_isnull(ptr noundef %0, ptr noundef %1, ptr noundef %2) #0 {
  %4 = alloca %struct.H5VL_blob_specific_args_t, align 8
  call void @llvm.lifetime.start.p0(i64 16, ptr nonnull %4) #13
  %5 = load i8, ptr @H5T_init_g, align 1, !tbaa !3, !range !7, !noundef !8
  %6 = trunc nuw i8 %5 to i1
  %7 = load i8, ptr @H5_libterm_g, align 1, !range !7
  %8 = trunc nuw i8 %7 to i1
  %9 = xor i1 %8, true
  %10 = select i1 %6, i1 true, i1 %9
  br i1 %10, label %11, label %20, !prof !9

11:                                               ; preds = %3
  %12 = getelementptr inbounds nuw i8, ptr %1, i64 4
  store i32 1, ptr %4, align 8, !tbaa !57
  %13 = getelementptr inbounds nuw i8, ptr %4, i64 8
  store ptr %2, ptr %13, align 8, !tbaa !32
  %14 = call i32 @H5VL_blob_specific(ptr noundef %0, ptr noundef nonnull %12, ptr noundef nonnull %4) #13
  %15 = icmp slt i32 %14, 0
  br i1 %15, label %16, label %20

16:                                               ; preds = %11
  %17 = load i64, ptr @H5E_DATATYPE_g, align 8, !tbaa !11
  %18 = load i64, ptr @H5E_CANTGET_g, align 8, !tbaa !11
  %19 = call i32 (ptr, ptr, i32, i64, i64, ptr, ...) @H5E_printf_stack(ptr noundef nonnull @.str, ptr noundef nonnull @__func__.H5T__vlen_disk_isnull, i32 noundef 765, i64 noundef %17, i64 noundef %18, ptr noundef nonnull @.str.24) #13
  br label %20

20:                                               ; preds = %16, %11, %3
  %.0 = phi i32 [ -1, %16 ], [ 0, %11 ], [ 0, %3 ]
  call void @llvm.lifetime.end.p0(i64 16, ptr nonnull %4) #13
  ret i32 %.0
}